target datalayout = "e-m:e-p270:32:32-p271:32:32-p272:64:64-i64:64-i128:128-f80:128-n8:16:32:64-S128"
target triple = "x86_64-pc-linux-gnu"

%struct.strbuf = type { i64, i64, ptr }

@the_repository = external global ptr, align 8
@.str.13 = private unnamed_addr constant [5 x i8] c"HEAD\00", align 1
@.str.39 = private unnamed_addr constant [8 x i8] c"setup.c\00", align 1
@__const.create_reference_database.err = private unnamed_addr constant %struct.strbuf { i64 0, i64 0, ptr @strbuf_slopbuf }, align 8
@.str.77 = private unnamed_addr constant [29 x i8] c"failed to set up refs db: %s\00", align 1
@.str.78 = private unnamed_addr constant [14 x i8] c"refs/heads/%s\00", align 1
@.str.79 = private unnamed_addr constant [34 x i8] c"invalid initial branch name: '%s'\00", align 1
@.str.80 = private unnamed_addr constant [37 x i8] c"re-init: ignored --initial-branch=%s\00", align 1
@__const.is_reinit.buf = private unnamed_addr constant %struct.strbuf { i64 0, i64 0, ptr @strbuf_slopbuf }, align 8

; Function Attrs: nounwind uwtable
define internal i32 @is_reinit() #0 {
  %1 = alloca %struct.strbuf, align 8
  %2 = alloca [2 x i8], align 1
  %3 = alloca i32, align 4
  call void @llvm.lifetime.start.p0(i64 24, ptr %1) #13
  call void @llvm.memcpy.p0.p0.i64(ptr align 8 %1, ptr align 8 @__const.is_reinit.buf, i64 24, i1 false)
  call void @llvm.lifetime.start.p0(i64 2, ptr %2) #13
  call void @llvm.lifetime.start.p0(i64 4, ptr %3) #13
  %4 = call ptr (ptr, ptr, ...) @git_path_buf(ptr noundef %1, ptr noundef @.str.13)
  %5 = getelementptr inbounds nuw %struct.strbuf, ptr %1, i32 0, i32 2
  %6 = load ptr, ptr %5, align 8, !tbaa !18
  %7 = call i32 @access(ptr noundef %6, i32 noundef 4) #13
  %8 = icmp ne i32 %7, 0
  br i1 %8, label %9, label %15

9:                                                ; preds = %0
  %10 = getelementptr inbounds nuw %struct.strbuf, ptr %1, i32 0, i32 2
  %11 = load ptr, ptr %10, align 8, !tbaa !18
  %12 = getelementptr inbounds [2 x i8], ptr %2, i64 0, i64 0
  %13 = call i64 @readlink(ptr noundef %11, ptr noundef %12, i64 noundef 1) #13
  %14 = icmp ne i64 %13, -1
  br label %15

15:                                               ; preds = %9, %0
  %16 = phi i1 [ true, %0 ], [ %14, %9 ]
  %17 = zext i1 %16 to i32
  store i32 %17, ptr %3, align 4, !tbaa !9
  call void @strbuf_release(ptr noundef %1)
  %18 = load i32, ptr %3, align 4, !tbaa !9
  call void @llvm.lifetime.end.p0(i64 4, ptr %3) #13
  call void @llvm.lifetime.end.p0(i64 2, ptr %2) #13
  call void @llvm.lifetime.end.p0(i64 24, ptr %1) #13
  ret i32 %18
}

; Function Attrs: nounwind uwtable
define dso_local void @create_reference_database(i32 noundef %0, ptr noundef %1, i32 noundef %2) #0 {
  %4 = alloca i32, align 4
  %5 = alloca ptr, align 8
  %6 = alloca i32, align 4
  %7 = alloca %struct.strbuf, align 8
  %8 = alloca ptr, align 8
  %9 = alloca i32, align 4
  %10 = alloca ptr, align 8
  store i32 %0, ptr %4, align 4, !tbaa !9
  store ptr %1, ptr %5, align 8, !tbaa !4
  store i32 %2, ptr %6, align 4, !tbaa !9
  call void @llvm.lifetime.start.p0(i64 24, ptr %7) #13
  call void @llvm.memcpy.p0.p0.i64(ptr align 8 %7, ptr align 8 @__const.create_reference_database.err, i64 24, i1 false)
  call void @llvm.lifetime.start.p0(i64 8, ptr %8) #13
  store ptr null, ptr %8, align 8, !tbaa !4
  call void @llvm.lifetime.start.p0(i64 4, ptr %9) #13
  %11 = call i32 @is_reinit()
  store i32 %11, ptr %9, align 4, !tbaa !9
  %12 = load ptr, ptr @the_repository, align 8, !tbaa !14
  %13 = load i32, ptr %4, align 4, !tbaa !9
  call void @repo_set_ref_storage_format(ptr noundef %12, i32 noundef %13)
  %14 = load ptr, ptr @the_repository, align 8, !tbaa !14
  %15 = call ptr @get_main_ref_store(ptr noundef %14)
  %16 = call i32 @ref_store_create_on_disk(ptr noundef %15, i32 noundef 0, ptr noundef %7)
  %17 = icmp ne i32 %16, 0
  br i1 %17, label %18, label %21

18:                                               ; preds = %3
  %19 = getelementptr inbounds nuw %struct.strbuf, ptr %7, i32 0, i32 2
  %20 = load ptr, ptr %19, align 8, !tbaa !18
  call void (ptr, ...) @die(ptr noundef @.str.77, ptr noundef %20) #15
  unreachable

21:                                               ; preds = %3
  %22 = load i32, ptr %9, align 4, !tbaa !9
  %23 = icmp ne i32 %22, 0
  br i1 %23, label %50, label %24

24:                                               ; preds = %21
  call void @llvm.lifetime.start.p0(i64 8, ptr %10) #13
  %25 = load ptr, ptr %5, align 8, !tbaa !4
  %26 = icmp ne ptr %25, null
  br i1 %26, label %31, label %27

27:                                               ; preds = %24
  %28 = load ptr, ptr @the_repository, align 8, !tbaa !14
  %29 = load i32, ptr %6, align 4, !tbaa !9
  %30 = call ptr @repo_default_branch_name(ptr noundef %28, i32 noundef %29)
  store ptr %30, ptr %8, align 8, !tbaa !4
  store ptr %30, ptr %5, align 8, !tbaa !4
  br label %31

31:                                               ; preds = %27, %24
  %32 = load ptr, ptr %5, align 8, !tbaa !4
  %33 = call ptr (ptr, ...) @xstrfmt(ptr noundef @.str.78, ptr noundef %32)
  store ptr %33, ptr %10, align 8, !tbaa !4
  %34 = load ptr, ptr %10, align 8, !tbaa !4
  %35 = call i32 @check_refname_format(ptr noundef %34, i32 noundef 0)
  %36 = icmp slt i32 %35, 0
  br i1 %36, label %37, label %40

37:                                               ; preds = %31
  %38 = call ptr @_(ptr noundef @.str.79)
  %39 = load ptr, ptr %5, align 8, !tbaa !4
  call void (ptr, ...) @die(ptr noundef %38, ptr noundef %39) #15
  unreachable

40:                                               ; preds = %31
  %41 = load ptr, ptr @the_repository, align 8, !tbaa !14
  %42 = call ptr @get_main_ref_store(ptr noundef %41)
  %43 = load ptr, ptr %10, align 8, !tbaa !4
  %44 = call i32 @refs_update_symref(ptr noundef %42, ptr noundef @.str.13, ptr noundef %43, ptr noundef null)
  %45 = icmp slt i32 %44, 0
  br i1 %45, label %46, label %48

46:                                               ; preds = %40
  %47 = call i32 @common_exit(ptr noundef @.str.39, i32 noundef 2301, i32 noundef 1)
  call void @exit(i32 noundef %47) #17
  unreachable

48:                                               ; preds = %40
  %49 = load ptr, ptr %10, align 8, !tbaa !4
  call void @free(ptr noundef %49) #13
  call void @llvm.lifetime.end.p0(i64 8, ptr %10) #13
  br label %50

50:                                               ; preds = %48, %21
  %51 = load i32, ptr %9, align 4, !tbaa !9
  %52 = icmp ne i32 %51, 0
  br i1 %52, label %53, label %59

53:                                               ; preds = %50
  %54 = load ptr, ptr %5, align 8, !tbaa !4
  %55 = icmp ne ptr %54, null
  br i1 %55, label %56, label %59

56:                                               ; preds = %53
  %57 = call ptr @_(ptr noundef @.str.80)
  %58 = load ptr, ptr %5, align 8, !tbaa !4
  call void (ptr, ...) @warning(ptr noundef %57, ptr noundef %58)
  br label %59

59:                                               ; preds = %56, %53, %50
  call void @strbuf_release(ptr noundef %7)
  %60 = load ptr, ptr %8, align 8, !tbaa !4
  call void @free(ptr noundef %60) #13
  call void @llvm.lifetime.end.p0(i64 4, ptr %9) #13
  call void @llvm.lifetime.end.p0(i64 8, ptr %8) #13
  call void @llvm.lifetime.end.p0(i64 24, ptr %7) #13
  ret void
}