; Function Attrs: nounwind uwtable
define dso_local void @create_reference_database(i32 noundef %0, ptr noundef %1, i32 noundef %2) local_unnamed_addr #0 {
  %4 = alloca %struct.strbuf, align 8
  %5 = alloca [2 x i8], align 1
  %6 = alloca %struct.strbuf, align 8
  call void @llvm.lifetime.start.p0(i64 24, ptr nonnull %6) #25
  call void @llvm.memcpy.p0.p0.i64(ptr noundef nonnull align 8 dereferenceable(24) %6, ptr noundef nonnull align 8 dereferenceable(24) @__const.create_object_directory.path, i64 24, i1 false)
  call void @llvm.lifetime.start.p0(i64 24, ptr nonnull %4) #25
  call void @llvm.memcpy.p0.p0.i64(ptr noundef nonnull align 8 dereferenceable(24) %4, ptr noundef nonnull align 8 dereferenceable(24) @__const.create_object_directory.path, i64 24, i1 false)
  call void @llvm.lifetime.start.p0(i64 2, ptr nonnull %5) #25
  %7 = call ptr (ptr, ptr, ...) @git_path_buf(ptr noundef %4, ptr noundef nonnull @.str.13)
  %8 = getelementptr inbounds nuw i8, ptr %4, i64 16
  %9 = load ptr, ptr %8, align 8, !tbaa !14
  %10 = call i32 @access(ptr noundef %9, i32 noundef 4) #25
  %.not.i = icmp eq i32 %10, 0
  br i1 %.not.i, label %is_reinit.exit, label %11

11:                                               ; preds = %3
  %12 = load ptr, ptr %8, align 8, !tbaa !14
  %13 = call i64 @readlink(ptr noundef %12, ptr noundef nonnull %5, i64 noundef 1) #25
  %14 = icmp ne i64 %13, -1
  br label %is_reinit.exit

is_reinit.exit:                                   ; preds = %3, %11
  %15 = phi i1 [ true, %3 ], [ %14, %11 ]
  call void @strbuf_release(ptr noundef nonnull %4) #25
  call void @llvm.lifetime.end.p0(i64 2, ptr nonnull %5) #25
  call void @llvm.lifetime.end.p0(i64 24, ptr nonnull %4) #25
  %16 = load ptr, ptr @the_repository, align 8, !tbaa !9
  call void @repo_set_ref_storage_format(ptr noundef %16, i32 noundef %0) #25
  %17 = load ptr, ptr @the_repository, align 8, !tbaa !9
  %18 = call ptr @get_main_ref_store(ptr noundef %17) #25
  %19 = call i32 @ref_store_create_on_disk(ptr noundef %18, i32 noundef 0, ptr noundef nonnull %6) #25
  %.not = icmp eq i32 %19, 0
  br i1 %.not, label %23, label %20

20:                                               ; preds = %is_reinit.exit
  %21 = getelementptr inbounds nuw i8, ptr %6, i64 16
  %22 = load ptr, ptr %21, align 8, !tbaa !14
  call void (ptr, ...) @die(ptr noundef nonnull @.str.77, ptr noundef %22) #26
  unreachable

23:                                               ; preds = %is_reinit.exit
  %.not21 = icmp eq ptr %1, null
  br i1 %15, label %41, label %24

24:                                               ; preds = %23
  br i1 %.not21, label %25, label %28

25:                                               ; preds = %24
  %26 = load ptr, ptr @the_repository, align 8, !tbaa !9
  %27 = call ptr @repo_default_branch_name(ptr noundef %26, i32 noundef %2) #25
  br label %28

28:                                               ; preds = %25, %24
  %.114 = phi ptr [ null, %24 ], [ %27, %25 ]
  %.1 = phi ptr [ %1, %24 ], [ %27, %25 ]
  %29 = call ptr (ptr, ...) @xstrfmt(ptr noundef nonnull @.str.78, ptr noundef %.1) #25
  %30 = call i32 @check_refname_format(ptr noundef %29, i32 noundef 0) #25
  %31 = icmp slt i32 %30, 0
  br i1 %31, label %32, label %34

32:                                               ; preds = %28
  %33 = call fastcc ptr @_(ptr noundef nonnull @.str.79)
  call void (ptr, ...) @die(ptr noundef %33, ptr noundef %.1) #26
  unreachable

34:                                               ; preds = %28
  %35 = load ptr, ptr @the_repository, align 8, !tbaa !9
  %36 = call ptr @get_main_ref_store(ptr noundef %35) #25
  %37 = call i32 @refs_update_symref(ptr noundef %36, ptr noundef nonnull @.str.13, ptr noundef %29, ptr noundef null) #25
  %38 = icmp slt i32 %37, 0
  br i1 %38, label %39, label %.thread

39:                                               ; preds = %34
  %40 = call i32 @common_exit(ptr noundef nonnull @.str.39, i32 noundef 2301, i32 noundef 1) #25
  call void @exit(i32 noundef %40) #26
  unreachable

.thread:                                          ; preds = %34
  call void @free(ptr noundef %29) #25
  br label %46

41:                                               ; preds = %23
  br i1 %.not21, label %46, label %42

42:                                               ; preds = %41
  %43 = load i32, ptr @git_gettext_enabled, align 4, !tbaa !7
  %.not4.i = icmp eq i32 %43, 0
  br i1 %.not4.i, label %_.exit, label %44

44:                                               ; preds = %42
  %45 = call ptr @dcgettext(ptr noundef null, ptr noundef nonnull @.str.80, i32 noundef 5) #25
  br label %_.exit

_.exit:                                           ; preds = %42, %44
  %.0.i = phi ptr [ %45, %44 ], [ @.str.80, %42 ]
  call void (ptr, ...) @warning(ptr noundef %.0.i, ptr noundef nonnull %1) #25
  br label %46

46:                                               ; preds = %.thread, %_.exit, %41
  %.01320 = phi ptr [ %.114, %.thread ], [ null, %_.exit ], [ null, %41 ]
  call void @strbuf_release(ptr noundef nonnull %6) #25
  call void @free(ptr noundef %.01320) #25
  call void @llvm.lifetime.end.p0(i64 24, ptr nonnull %6) #25
  ret void
}